; Function Attrs: nounwind uwtable
define range(i32 -1, 1) i32 @H5D__layout_oh_write(ptr noundef readonly captures(none) %0, ptr noundef %1, i32 noundef %2) local_unnamed_addr #0 {
  %4 = load i8, ptr @H5D_init_g, align 1, !tbaa !3, !range !7, !noundef !8
  %5 = trunc nuw i8 %4 to i1
  %6 = load i8, ptr @H5_libterm_g, align 1, !range !7
  %7 = trunc nuw i8 %6 to i1
  %8 = xor i1 %7, true
  %9 = select i1 %5, i1 true, i1 %8
  br i1 %9, label %10, label %29, !prof !9

10:                                               ; preds = %3
  %11 = tail call i32 @H5O_msg_exists_oh(ptr noundef %1, i32 noundef 8) #4
  %12 = icmp slt i32 %11, 0
  br i1 %12, label %13, label %17

13:                                               ; preds = %10
  %14 = load i64, ptr @H5E_DATASET_g, align 8, !tbaa !49
  %15 = load i64, ptr @H5E_CANTGET_g, align 8, !tbaa !49
  %16 = tail call i32 (ptr, ptr, i32, i64, i64, ptr, ...) @H5E_printf_stack(ptr noundef nonnull @.str, ptr noundef nonnull @__func__.H5D__layout_oh_write, i32 noundef 685, i64 noundef %14, i64 noundef %15, ptr noundef nonnull @.str.34) #4
  br label %29

17:                                               ; preds = %10
  %.not = icmp eq i32 %11, 0
  br i1 %.not, label %29, label %18

18:                                               ; preds = %17
  %19 = load ptr, ptr %0, align 8, !tbaa !73
  %20 = getelementptr inbounds nuw i8, ptr %0, i64 48
  %21 = load ptr, ptr %20, align 8, !tbaa !10
  %22 = getelementptr inbounds nuw i8, ptr %21, i64 248
  %23 = tail call i32 @H5O_msg_write_oh(ptr noundef %19, ptr noundef %1, i32 noundef 8, i32 noundef 0, i32 noundef %2, ptr noundef nonnull %22) #4
  %24 = icmp slt i32 %23, 0
  br i1 %24, label %25, label %29

25:                                               ; preds = %18
  %26 = load i64, ptr @H5E_DATASET_g, align 8, !tbaa !49
  %27 = load i64, ptr @H5E_WRITEERROR_g, align 8, !tbaa !49
  %28 = tail call i32 (ptr, ptr, i32, i64, i64, ptr, ...) @H5E_printf_stack(ptr noundef nonnull @.str, ptr noundef nonnull @__func__.H5D__layout_oh_write, i32 noundef 690, i64 noundef %26, i64 noundef %27, ptr noundef nonnull @.str.35) #4
  br label %29

29:                                               ; preds = %13, %25, %18, %17, %3
  %.0 = phi i32 [ -1, %13 ], [ -1, %25 ], [ 0, %18 ], [ 0, %17 ], [ 0, %3 ]
  ret i32 %.0
}